target datalayout = "e-m:e-p270:32:32-p271:32:32-p272:64:64-i64:64-i128:128-f80:128-n8:16:32:64-S128"
target triple = "x86_64-pc-linux-gnu"

%"struct.Luau::TypeSimplifier" = type <{ %"struct.Luau::NotNull.56", %"struct.Luau::NotNull.57", %"class.Luau::DenseHashSet.58", i32, [4 x i8] }>
%"struct.Luau::NotNull.56" = type { ptr }
%"struct.Luau::NotNull.57" = type { ptr }
%"class.Luau::DenseHashSet.58" = type { %"class.Luau::detail::DenseHashTable.59" }
%"class.Luau::detail::DenseHashTable.59" = type <{ ptr, i64, i64, ptr, [8 x i8] }>
%"struct.Luau::SimplifyResult" = type { ptr, %"class.Luau::DenseHashSet.58" }

; Function Attrs: mustprogress nounwind uwtable
define linkonce_odr dso_local void @_ZN4Luau6detail16ItemInterfaceSetIPKNS_4TypeEE7destroyEPS4_m(ptr noundef %0, i64 noundef %1) #2 comdat align 2 {
  %3 = alloca ptr, align 8
  %4 = alloca i64, align 8
  %5 = alloca i64, align 8
  store ptr %0, ptr %3, align 8, !tbaa !103
  store i64 %1, ptr %4, align 8, !tbaa !125
  call void @llvm.lifetime.start.p0(i64 8, ptr %5) #19
  store i64 0, ptr %5, align 8, !tbaa !125
  br label %6

6:                                                ; preds = %12, %2
  %7 = load i64, ptr %5, align 8, !tbaa !125
  %8 = load i64, ptr %4, align 8, !tbaa !125
  %9 = icmp ult i64 %7, %8
  br i1 %9, label %11, label %10

10:                                               ; preds = %6
  call void @llvm.lifetime.end.p0(i64 8, ptr %5) #19
  br label %15

11:                                               ; preds = %6
  br label %12

12:                                               ; preds = %11
  %13 = load i64, ptr %5, align 8, !tbaa !125
  %14 = add i64 %13, 1
  store i64 %14, ptr %5, align 8, !tbaa !125
  br label %6, !llvm.loop !496

15:                                               ; preds = %10
  ret void
}

; Function Attrs: noinline noreturn nounwind uwtable
define linkonce_odr hidden void @__clang_call_terminate(ptr noundef %0) #9 comdat {
  %2 = call ptr @__cxa_begin_catch(ptr %0) #19
  call void @_ZSt9terminatev() #20
  unreachable
}

; Function Attrs: mustprogress uwtable
define linkonce_odr dso_local void @_ZN4Luau6detail14DenseHashTableIPKNS_4TypeES4_S4_NS0_16ItemInterfaceSetIS4_EENS_16DenseHashPointerESt8equal_toIS4_EE7destroyEv(ptr noundef nonnull align 8 dereferenceable(34) %0) #3 comdat align 2 {
  %2 = alloca ptr, align 8
  store ptr %0, ptr %2, align 8, !tbaa !492
  %3 = load ptr, ptr %2, align 8
  %4 = getelementptr inbounds nuw %"class.Luau::detail::DenseHashTable.59", ptr %3, i32 0, i32 0
  %5 = load ptr, ptr %4, align 8, !tbaa !494
  %6 = getelementptr inbounds nuw %"class.Luau::detail::DenseHashTable.59", ptr %3, i32 0, i32 1
  %7 = load i64, ptr %6, align 8, !tbaa !495
  call void @_ZN4Luau6detail16ItemInterfaceSetIPKNS_4TypeEE7destroyEPS4_m(ptr noundef %5, i64 noundef %7)
  %8 = getelementptr inbounds nuw %"class.Luau::detail::DenseHashTable.59", ptr %3, i32 0, i32 0
  %9 = load ptr, ptr %8, align 8, !tbaa !494
  call void @_ZdlPv(ptr noundef %9) #19
  %10 = getelementptr inbounds nuw %"class.Luau::detail::DenseHashTable.59", ptr %3, i32 0, i32 0
  store ptr null, ptr %10, align 8, !tbaa !494
  %11 = getelementptr inbounds nuw %"class.Luau::detail::DenseHashTable.59", ptr %3, i32 0, i32 1
  store i64 0, ptr %11, align 8, !tbaa !495
  ret void
}

; Function Attrs: mustprogress nounwind uwtable
define linkonce_odr dso_local void @_ZN4Luau6detail14DenseHashTableIPKNS_4TypeES4_S4_NS0_16ItemInterfaceSetIS4_EENS_16DenseHashPointerESt8equal_toIS4_EED2Ev(ptr noundef nonnull align 8 dereferenceable(34) %0) unnamed_addr #2 comdat align 2 personality ptr @__gxx_personality_v0 {
  %2 = alloca ptr, align 8
  store ptr %0, ptr %2, align 8, !tbaa !492
  %3 = load ptr, ptr %2, align 8
  %4 = getelementptr inbounds nuw %"class.Luau::detail::DenseHashTable.59", ptr %3, i32 0, i32 0
  %5 = load ptr, ptr %4, align 8, !tbaa !494
  %6 = icmp ne ptr %5, null
  br i1 %6, label %7, label %9

7:                                                ; preds = %1
  invoke void @_ZN4Luau6detail14DenseHashTableIPKNS_4TypeES4_S4_NS0_16ItemInterfaceSetIS4_EENS_16DenseHashPointerESt8equal_toIS4_EE7destroyEv(ptr noundef nonnull align 8 dereferenceable(34) %3)
          to label %8 unwind label %10

8:                                                ; preds = %7
  br label %9

9:                                                ; preds = %8, %1
  ret void

10:                                               ; preds = %7
  %11 = landingpad { ptr, i32 }
          catch ptr null
  %12 = extractvalue { ptr, i32 } %11, 0
  call void @__clang_call_terminate(ptr %12) #20
  unreachable
}

; Function Attrs: mustprogress nounwind uwtable
define linkonce_odr dso_local void @_ZN4Luau6detail16ItemInterfaceSetIPKNS_4TypeEE4fillEPS4_mRKS4_(ptr noundef %0, i64 noundef %1, ptr noundef nonnull align 8 dereferenceable(8) %2) #2 comdat align 2 {
  %4 = alloca ptr, align 8
  %5 = alloca i64, align 8
  %6 = alloca ptr, align 8
  %7 = alloca i64, align 8
  store ptr %0, ptr %4, align 8, !tbaa !103
  store i64 %1, ptr %5, align 8, !tbaa !125
  store ptr %2, ptr %6, align 8, !tbaa !103
  call void @llvm.lifetime.start.p0(i64 8, ptr %7) #19
  store i64 0, ptr %7, align 8, !tbaa !125
  br label %8

8:                                                ; preds = %19, %3
  %9 = load i64, ptr %7, align 8, !tbaa !125
  %10 = load i64, ptr %5, align 8, !tbaa !125
  %11 = icmp ult i64 %9, %10
  br i1 %11, label %13, label %12

12:                                               ; preds = %8
  call void @llvm.lifetime.end.p0(i64 8, ptr %7) #19
  br label %22

13:                                               ; preds = %8
  %14 = load ptr, ptr %4, align 8, !tbaa !103
  %15 = load i64, ptr %7, align 8, !tbaa !125
  %16 = getelementptr inbounds nuw ptr, ptr %14, i64 %15
  %17 = load ptr, ptr %6, align 8, !tbaa !103
  %18 = load ptr, ptr %17, align 8, !tbaa !29
  store ptr %18, ptr %16, align 8, !tbaa !29
  br label %19

19:                                               ; preds = %13
  %20 = load i64, ptr %7, align 8, !tbaa !125
  %21 = add i64 %20, 1
  store i64 %21, ptr %7, align 8, !tbaa !125
  br label %8, !llvm.loop !791

22:                                               ; preds = %12
  ret void
}

; Function Attrs: inlinehint mustprogress nounwind uwtable
define linkonce_odr dso_local void @_ZN4Luau12DenseHashSetIPKNS_4TypeENS_16DenseHashPointerESt8equal_toIS3_EED2Ev(ptr noundef nonnull align 8 dereferenceable(40) %0) unnamed_addr #6 comdat align 2 {
  %2 = alloca ptr, align 8
  store ptr %0, ptr %2, align 8, !tbaa !227
  %3 = load ptr, ptr %2, align 8
  %4 = getelementptr inbounds nuw %"class.Luau::DenseHashSet.58", ptr %3, i32 0, i32 0
  call void @_ZN4Luau6detail14DenseHashTableIPKNS_4TypeES4_S4_NS0_16ItemInterfaceSetIS4_EENS_16DenseHashPointerESt8equal_toIS4_EED2Ev(ptr noundef nonnull align 8 dereferenceable(34) %4) #19
  ret void
}

; Function Attrs: mustprogress nounwind uwtable
define linkonce_odr dso_local void @_ZN4Luau6detail14DenseHashTableIPKNS_4TypeES4_S4_NS0_16ItemInterfaceSetIS4_EENS_16DenseHashPointerESt8equal_toIS4_EEC2EOSA_(ptr noundef nonnull align 8 dereferenceable(34) %0, ptr noundef nonnull align 8 dereferenceable(34) %1) unnamed_addr #2 comdat align 2 {
  %3 = alloca ptr, align 8
  %4 = alloca ptr, align 8
  store ptr %0, ptr %3, align 8, !tbaa !492
  store ptr %1, ptr %4, align 8, !tbaa !492
  %5 = load ptr, ptr %3, align 8
  %6 = getelementptr inbounds nuw %"class.Luau::detail::DenseHashTable.59", ptr %5, i32 0, i32 0
  %7 = load ptr, ptr %4, align 8, !tbaa !492
  %8 = getelementptr inbounds nuw %"class.Luau::detail::DenseHashTable.59", ptr %7, i32 0, i32 0
  %9 = load ptr, ptr %8, align 8, !tbaa !494
  store ptr %9, ptr %6, align 8, !tbaa !494
  %10 = getelementptr inbounds nuw %"class.Luau::detail::DenseHashTable.59", ptr %5, i32 0, i32 1
  %11 = load ptr, ptr %4, align 8, !tbaa !492
  %12 = getelementptr inbounds nuw %"class.Luau::detail::DenseHashTable.59", ptr %11, i32 0, i32 1
  %13 = load i64, ptr %12, align 8, !tbaa !495
  store i64 %13, ptr %10, align 8, !tbaa !495
  %14 = getelementptr inbounds nuw %"class.Luau::detail::DenseHashTable.59", ptr %5, i32 0, i32 2
  %15 = load ptr, ptr %4, align 8, !tbaa !492
  %16 = getelementptr inbounds nuw %"class.Luau::detail::DenseHashTable.59", ptr %15, i32 0, i32 2
  %17 = load i64, ptr %16, align 8, !tbaa !497
  store i64 %17, ptr %14, align 8, !tbaa !497
  %18 = getelementptr inbounds nuw %"class.Luau::detail::DenseHashTable.59", ptr %5, i32 0, i32 3
  %19 = load ptr, ptr %4, align 8, !tbaa !492
  %20 = getelementptr inbounds nuw %"class.Luau::detail::DenseHashTable.59", ptr %19, i32 0, i32 3
  %21 = load ptr, ptr %20, align 8, !tbaa !498
  store ptr %21, ptr %18, align 8, !tbaa !498
  %22 = load ptr, ptr %4, align 8, !tbaa !492
  %23 = getelementptr inbounds nuw %"class.Luau::detail::DenseHashTable.59", ptr %22, i32 0, i32 0
  store ptr null, ptr %23, align 8, !tbaa !494
  %24 = load ptr, ptr %4, align 8, !tbaa !492
  %25 = getelementptr inbounds nuw %"class.Luau::detail::DenseHashTable.59", ptr %24, i32 0, i32 1
  store i64 0, ptr %25, align 8, !tbaa !495
  %26 = load ptr, ptr %4, align 8, !tbaa !492
  %27 = getelementptr inbounds nuw %"class.Luau::detail::DenseHashTable.59", ptr %26, i32 0, i32 2
  store i64 0, ptr %27, align 8, !tbaa !497
  ret void
}

; Function Attrs: mustprogress uwtable
define linkonce_odr dso_local void @_ZN4Luau6detail14DenseHashTableIPKNS_4TypeES4_S4_NS0_16ItemInterfaceSetIS4_EENS_16DenseHashPointerESt8equal_toIS4_EEC2ERKS4_m(ptr noundef nonnull align 8 dereferenceable(34) %0, ptr noundef nonnull align 8 dereferenceable(8) %1, i64 noundef %2) unnamed_addr #3 comdat align 2 {
  %4 = alloca ptr, align 8
  %5 = alloca ptr, align 8
  %6 = alloca i64, align 8
  store ptr %0, ptr %4, align 8, !tbaa !492
  store ptr %1, ptr %5, align 8, !tbaa !103
  store i64 %2, ptr %6, align 8, !tbaa !125
  %7 = load ptr, ptr %4, align 8
  %8 = getelementptr inbounds nuw %"class.Luau::detail::DenseHashTable.59", ptr %7, i32 0, i32 0
  store ptr null, ptr %8, align 8, !tbaa !494
  %9 = getelementptr inbounds nuw %"class.Luau::detail::DenseHashTable.59", ptr %7, i32 0, i32 1
  store i64 0, ptr %9, align 8, !tbaa !495
  %10 = getelementptr inbounds nuw %"class.Luau::detail::DenseHashTable.59", ptr %7, i32 0, i32 2
  store i64 0, ptr %10, align 8, !tbaa !497
  %11 = getelementptr inbounds nuw %"class.Luau::detail::DenseHashTable.59", ptr %7, i32 0, i32 3
  %12 = load ptr, ptr %5, align 8, !tbaa !103
  %13 = load ptr, ptr %12, align 8, !tbaa !29
  store ptr %13, ptr %11, align 8, !tbaa !498
  %14 = load i64, ptr %6, align 8, !tbaa !125
  %15 = icmp ne i64 %14, 0
  br i1 %15, label %16, label %27

16:                                               ; preds = %3
  %17 = load i64, ptr %6, align 8, !tbaa !125
  %18 = mul i64 8, %17
  %19 = call noalias noundef nonnull ptr @_Znwm(i64 noundef %18) #25
  %20 = getelementptr inbounds nuw %"class.Luau::detail::DenseHashTable.59", ptr %7, i32 0, i32 0
  store ptr %19, ptr %20, align 8, !tbaa !494
  %21 = load i64, ptr %6, align 8, !tbaa !125
  %22 = getelementptr inbounds nuw %"class.Luau::detail::DenseHashTable.59", ptr %7, i32 0, i32 1
  store i64 %21, ptr %22, align 8, !tbaa !495
  %23 = getelementptr inbounds nuw %"class.Luau::detail::DenseHashTable.59", ptr %7, i32 0, i32 0
  %24 = load ptr, ptr %23, align 8, !tbaa !494
  %25 = load i64, ptr %6, align 8, !tbaa !125
  %26 = load ptr, ptr %5, align 8, !tbaa !103
  call void @_ZN4Luau6detail16ItemInterfaceSetIPKNS_4TypeEE4fillEPS4_mRKS4_(ptr noundef %24, i64 noundef %25, ptr noundef nonnull align 8 dereferenceable(8) %26)
  br label %27

27:                                               ; preds = %16, %3
  ret void
}

; Function Attrs: inlinehint mustprogress nounwind uwtable
define linkonce_odr dso_local void @_ZN4Luau14TypeSimplifierD2Ev(ptr noundef nonnull align 8 dereferenceable(60) %0) unnamed_addr #6 comdat align 2 {
  %2 = alloca ptr, align 8
  store ptr %0, ptr %2, align 8, !tbaa !134
  %3 = load ptr, ptr %2, align 8
  %4 = getelementptr inbounds nuw %"struct.Luau::TypeSimplifier", ptr %3, i32 0, i32 2
  call void @_ZN4Luau12DenseHashSetIPKNS_4TypeENS_16DenseHashPointerESt8equal_toIS3_EED2Ev(ptr noundef nonnull align 8 dereferenceable(40) %4) #19
  ret void
}

; Function Attrs: inlinehint mustprogress uwtable
define linkonce_odr dso_local void @_ZN4Luau12DenseHashSetIPKNS_4TypeENS_16DenseHashPointerESt8equal_toIS3_EEC2EOS7_(ptr noundef nonnull align 8 dereferenceable(40) %0, ptr noundef nonnull align 8 dereferenceable(40) %1) unnamed_addr #5 comdat align 2 {
  %3 = alloca ptr, align 8
  %4 = alloca ptr, align 8
  store ptr %0, ptr %3, align 8, !tbaa !227
  store ptr %1, ptr %4, align 8, !tbaa !227
  %5 = load ptr, ptr %3, align 8
  %6 = getelementptr inbounds nuw %"class.Luau::DenseHashSet.58", ptr %5, i32 0, i32 0
  %7 = load ptr, ptr %4, align 8, !tbaa !227
  %8 = getelementptr inbounds nuw %"class.Luau::DenseHashSet.58", ptr %7, i32 0, i32 0
  call void @_ZN4Luau6detail14DenseHashTableIPKNS_4TypeES4_S4_NS0_16ItemInterfaceSetIS4_EENS_16DenseHashPointerESt8equal_toIS4_EEC2EOSA_(ptr noundef nonnull align 8 dereferenceable(34) %6, ptr noundef nonnull align 8 dereferenceable(34) %8)
  ret void
}

; Function Attrs: mustprogress uwtable
define linkonce_odr dso_local void @_ZN4Luau12DenseHashSetIPKNS_4TypeENS_16DenseHashPointerESt8equal_toIS3_EEC2ERKS3_m(ptr noundef nonnull align 8 dereferenceable(40) %0, ptr noundef nonnull align 8 dereferenceable(8) %1, i64 noundef %2) unnamed_addr #3 comdat align 2 {
  %4 = alloca ptr, align 8
  %5 = alloca ptr, align 8
  %6 = alloca i64, align 8
  store ptr %0, ptr %4, align 8, !tbaa !227
  store ptr %1, ptr %5, align 8, !tbaa !103
  store i64 %2, ptr %6, align 8, !tbaa !125
  %7 = load ptr, ptr %4, align 8
  %8 = getelementptr inbounds nuw %"class.Luau::DenseHashSet.58", ptr %7, i32 0, i32 0
  %9 = load ptr, ptr %5, align 8, !tbaa !103
  %10 = load i64, ptr %6, align 8, !tbaa !125
  call void @_ZN4Luau6detail14DenseHashTableIPKNS_4TypeES4_S4_NS0_16ItemInterfaceSetIS4_EENS_16DenseHashPointerESt8equal_toIS4_EEC2ERKS4_m(ptr noundef nonnull align 8 dereferenceable(34) %8, ptr noundef nonnull align 8 dereferenceable(8) %9, i64 noundef %10)
  ret void
}

; Function Attrs: mustprogress uwtable
define dso_local void @_ZN4Luau13simplifyUnionENS_7NotNullINS_12BuiltinTypesEEENS0_INS_9TypeArenaEEEPKNS_4TypeES7_(ptr dead_on_unwind noalias writable sret(%"struct.Luau::SimplifyResult") align 8 %0, ptr %1, ptr %2, ptr noundef %3, ptr noundef %4) #3 personality ptr @__gxx_personality_v0 {
  %6 = alloca ptr, align 8
  %7 = alloca %"struct.Luau::NotNull.56", align 8
  %8 = alloca %"struct.Luau::NotNull.57", align 8
  %9 = alloca ptr, align 8
  %10 = alloca ptr, align 8
  %11 = alloca %"struct.Luau::TypeSimplifier", align 8
  %12 = alloca ptr, align 8
  %13 = alloca ptr, align 8
  %14 = alloca ptr, align 8
  %15 = alloca i32, align 4
  store ptr %0, ptr %6, align 8
  %16 = getelementptr inbounds nuw %"struct.Luau::NotNull.56", ptr %7, i32 0, i32 0
  store ptr %1, ptr %16, align 8
  %17 = getelementptr inbounds nuw %"struct.Luau::NotNull.57", ptr %8, i32 0, i32 0
  store ptr %2, ptr %17, align 8
  store ptr %3, ptr %9, align 8, !tbaa !29
  store ptr %4, ptr %10, align 8, !tbaa !29
  call void @llvm.lifetime.start.p0(i64 64, ptr %11) #19
  %18 = getelementptr inbounds nuw %"struct.Luau::TypeSimplifier", ptr %11, i32 0, i32 0
  call void @llvm.memcpy.p0.p0.i64(ptr align 8 %18, ptr align 8 %7, i64 8, i1 false), !tbaa.struct !240
  %19 = getelementptr inbounds nuw %"struct.Luau::TypeSimplifier", ptr %11, i32 0, i32 1
  call void @llvm.memcpy.p0.p0.i64(ptr align 8 %19, ptr align 8 %8, i64 8, i1 false), !tbaa.struct !242
  %20 = getelementptr inbounds nuw %"struct.Luau::TypeSimplifier", ptr %11, i32 0, i32 2
  call void @llvm.lifetime.start.p0(i64 8, ptr %12) #19
  store ptr null, ptr %12, align 8, !tbaa !29
  call void @_ZN4Luau12DenseHashSetIPKNS_4TypeENS_16DenseHashPointerESt8equal_toIS3_EEC2ERKS3_m(ptr noundef nonnull align 8 dereferenceable(40) %20, ptr noundef nonnull align 8 dereferenceable(8) %12, i64 noundef 0)
  call void @llvm.lifetime.end.p0(i64 8, ptr %12) #19
  %21 = getelementptr inbounds nuw %"struct.Luau::TypeSimplifier", ptr %11, i32 0, i32 3
  store i32 0, ptr %21, align 8, !tbaa !243
  call void @llvm.lifetime.start.p0(i64 8, ptr %13) #19
  %22 = load ptr, ptr %9, align 8, !tbaa !29
  %23 = load ptr, ptr %10, align 8, !tbaa !29
  %24 = invoke noundef ptr @_ZN4Luau14TypeSimplifier6union_EPKNS_4TypeES3_(ptr noundef nonnull align 8 dereferenceable(60) %11, ptr noundef %22, ptr noundef %23)
          to label %25 unwind label %31

25:                                               ; preds = %5
  store ptr %24, ptr %13, align 8, !tbaa !29
  %26 = getelementptr inbounds nuw %"struct.Luau::SimplifyResult", ptr %0, i32 0, i32 0
  %27 = load ptr, ptr %13, align 8, !tbaa !29
  store ptr %27, ptr %26, align 8, !tbaa !249
  %28 = getelementptr inbounds nuw %"struct.Luau::SimplifyResult", ptr %0, i32 0, i32 1
  %29 = getelementptr inbounds nuw %"struct.Luau::TypeSimplifier", ptr %11, i32 0, i32 2
  invoke void @_ZN4Luau12DenseHashSetIPKNS_4TypeENS_16DenseHashPointerESt8equal_toIS3_EEC2EOS7_(ptr noundef nonnull align 8 dereferenceable(40) %28, ptr noundef nonnull align 8 dereferenceable(40) %29)
          to label %30 unwind label %31

30:                                               ; preds = %25
  call void @llvm.lifetime.end.p0(i64 8, ptr %13) #19
  call void @_ZN4Luau14TypeSimplifierD2Ev(ptr noundef nonnull align 8 dereferenceable(60) %11) #19
  call void @llvm.lifetime.end.p0(i64 64, ptr %11) #19
  ret void

31:                                               ; preds = %25, %5
  %32 = landingpad { ptr, i32 }
          cleanup
  %33 = extractvalue { ptr, i32 } %32, 0
  store ptr %33, ptr %14, align 8
  %34 = extractvalue { ptr, i32 } %32, 1
  store i32 %34, ptr %15, align 4
  call void @llvm.lifetime.end.p0(i64 8, ptr %13) #19
  call void @_ZN4Luau14TypeSimplifierD2Ev(ptr noundef nonnull align 8 dereferenceable(60) %11) #19
  call void @llvm.lifetime.end.p0(i64 64, ptr %11) #19
  br label %35

35:                                               ; preds = %31
  %36 = load ptr, ptr %14, align 8
  %37 = load i32, ptr %15, align 4
  %38 = insertvalue { ptr, i32 } poison, ptr %36, 0
  %39 = insertvalue { ptr, i32 } %38, i32 %37, 1
  resume { ptr, i32 } %39
}