; Function Attrs: mustprogress uwtable
define dso_local void @_ZN4Luau13simplifyUnionENS_7NotNullINS_12BuiltinTypesEEENS0_INS_9TypeArenaEEEPKNS_4TypeES7_(ptr dead_on_unwind noalias writable writeonly sret(%"struct.Luau::SimplifyResult") align 8 captures(none) %0, ptr %1, ptr %2, ptr noundef %3, ptr noundef %4) local_unnamed_addr #2 personality ptr @__gxx_personality_v0 {
  %6 = alloca %"struct.Luau::TypeSimplifier", align 8
  call void @llvm.lifetime.start.p0(i64 64, ptr nonnull %6) #23
  store ptr %1, ptr %6, align 8, !tbaa !204
  %7 = getelementptr inbounds nuw i8, ptr %6, i64 8
  store ptr %2, ptr %7, align 8, !tbaa !205
  %8 = getelementptr inbounds nuw i8, ptr %6, i64 16
  %9 = getelementptr inbounds nuw i8, ptr %6, i64 56
  store i32 0, ptr %9, align 8, !tbaa !206
  call void @llvm.memset.p0.i64(ptr noundef nonnull align 8 dereferenceable(32) %8, i8 0, i64 32, i1 false)
  %10 = invoke noundef ptr @_ZN4Luau14TypeSimplifier6union_EPKNS_4TypeES3_(ptr noundef nonnull align 8 dereferenceable(60) %6, ptr noundef %3, ptr noundef %4)
          to label %_ZN4Luau14TypeSimplifierD2Ev.exit unwind label %22

_ZN4Luau14TypeSimplifierD2Ev.exit:                ; preds = %5
  %11 = getelementptr inbounds nuw i8, ptr %6, i64 40
  store ptr %10, ptr %0, align 8, !tbaa !209
  %12 = getelementptr inbounds nuw i8, ptr %0, i64 8
  %13 = load ptr, ptr %8, align 8, !tbaa !181
  store ptr %13, ptr %12, align 8, !tbaa !181
  %14 = getelementptr inbounds nuw i8, ptr %0, i64 16
  %15 = getelementptr inbounds nuw i8, ptr %6, i64 24
  %16 = load i64, ptr %15, align 8, !tbaa !191
  store i64 %16, ptr %14, align 8, !tbaa !191
  %17 = getelementptr inbounds nuw i8, ptr %0, i64 24
  %18 = getelementptr inbounds nuw i8, ptr %6, i64 32
  %19 = load i64, ptr %18, align 8, !tbaa !190
  store i64 %19, ptr %17, align 8, !tbaa !190
  %20 = getelementptr inbounds nuw i8, ptr %0, i64 32
  %21 = load ptr, ptr %11, align 8, !tbaa !211
  store ptr %21, ptr %20, align 8, !tbaa !211
  call void @llvm.lifetime.end.p0(i64 64, ptr nonnull %6) #23
  ret void

22:                                               ; preds = %5
  %23 = landingpad { ptr, i32 }
          cleanup
  %24 = load ptr, ptr %8, align 8, !tbaa !181
  %.not.i.i.i5 = icmp eq ptr %24, null
  br i1 %.not.i.i.i5, label %_ZN4Luau14TypeSimplifierD2Ev.exit6, label %25

25:                                               ; preds = %22
  call void @_ZdlPv(ptr noundef nonnull %24) #23
  br label %_ZN4Luau14TypeSimplifierD2Ev.exit6

_ZN4Luau14TypeSimplifierD2Ev.exit6:               ; preds = %22, %25
  call void @llvm.lifetime.end.p0(i64 64, ptr nonnull %6) #23
  resume { ptr, i32 } %23
}